target datalayout = "e-m:e-p270:32:32-p271:32:32-p272:64:64-i64:64-i128:128-f80:128-n8:16:32:64-S128"
target triple = "x86_64-pc-linux-gnu"

%struct.strbuf = type { i64, i64, ptr }
%struct.option = type { i32, i32, ptr, ptr, ptr, ptr, i32, ptr, i64, ptr, i64, ptr }
%struct.object_id = type { [32 x i8], i32 }
%struct.worktree = type { ptr, ptr, ptr, ptr, ptr, ptr, %struct.object_id, i32, i32, i32, i32, i32 }

@.str.5 = private unnamed_addr constant [5 x i8] c"move\00", align 1
@.str.9 = private unnamed_addr constant [6 x i8] c"force\00", align 1
@.str.30 = private unnamed_addr constant [15 x i8] c"relative-paths\00", align 1
@.str.31 = private unnamed_addr constant [33 x i8] c"use relative paths for worktrees\00", align 1
@use_relative_paths = internal global i32 0, align 4
@.str.143 = private unnamed_addr constant [27 x i8] c"'%s' is not a working tree\00", align 1
@.str.151 = private unnamed_addr constant [47 x i8] c"force move even if worktree is dirty or locked\00", align 1
@__const.move_worktree.dst = private unnamed_addr constant %struct.strbuf { i64 0, i64 0, ptr @strbuf_slopbuf }, align 8
@__const.move_worktree.errmsg = private unnamed_addr constant %struct.strbuf { i64 0, i64 0, ptr @strbuf_slopbuf }, align 8
@git_worktree_move_usage = internal constant [2 x ptr] [ptr @.str.158, ptr null], align 16
@.str.152 = private unnamed_addr constant [28 x i8] c"'%s' is a main working tree\00", align 1
@.str.153 = private unnamed_addr constant [48 x i8] c"could not figure out destination name from '%s'\00", align 1
@.str.154 = private unnamed_addr constant [96 x i8] c"cannot move a locked working tree, lock reason: %s\0Ause 'move -f -f' to override or unlock first\00", align 1
@.str.155 = private unnamed_addr constant [80 x i8] c"cannot move a locked working tree;\0Ause 'move -f -f' to override or unlock first\00", align 1
@.str.156 = private unnamed_addr constant [48 x i8] c"validation failed, cannot move working tree: %s\00", align 1
@.str.157 = private unnamed_addr constant [28 x i8] c"failed to move '%s' to '%s'\00", align 1

; Function Attrs: inlinehint nounwind uwtable
define internal ptr @git_find_last_dir_sep(ptr noundef %0) #3 {
  %2 = alloca ptr, align 8
  store ptr %0, ptr %2, align 8, !tbaa !11
  %3 = load ptr, ptr %2, align 8, !tbaa !11
  %4 = call ptr @strrchr(ptr noundef %3, i32 noundef 47) #13
  ret ptr %4
}

; Function Attrs: inlinehint nounwind uwtable
define internal void @strbuf_addstr(ptr noundef %0, ptr noundef %1) #3 {
  %3 = alloca ptr, align 8
  %4 = alloca ptr, align 8
  store ptr %0, ptr %3, align 8, !tbaa !92
  store ptr %1, ptr %4, align 8, !tbaa !11
  %5 = load ptr, ptr %3, align 8, !tbaa !92
  %6 = load ptr, ptr %4, align 8, !tbaa !11
  %7 = load ptr, ptr %4, align 8, !tbaa !11
  %8 = call i64 @strlen(ptr noundef %7) #13
  call void @strbuf_add(ptr noundef %5, ptr noundef %6, i64 noundef %8)
  ret void
}

; Function Attrs: nounwind uwtable
define internal i32 @move_worktree(i32 noundef %0, ptr noundef %1, ptr noundef %2, ptr noundef %3) #0 {
  %5 = alloca i32, align 4
  %6 = alloca ptr, align 8
  %7 = alloca ptr, align 8
  %8 = alloca ptr, align 8
  %9 = alloca i32, align 4
  %10 = alloca [3 x %struct.option], align 16
  %11 = alloca ptr, align 8
  %12 = alloca ptr, align 8
  %13 = alloca %struct.strbuf, align 8
  %14 = alloca %struct.strbuf, align 8
  %15 = alloca ptr, align 8
  %16 = alloca ptr, align 8
  %17 = alloca ptr, align 8
  store i32 %0, ptr %5, align 4, !tbaa !4
  store ptr %1, ptr %6, align 8, !tbaa !8
  store ptr %2, ptr %7, align 8, !tbaa !11
  store ptr %3, ptr %8, align 8, !tbaa !13
  call void @llvm.lifetime.start.p0(i64 4, ptr %9) #11
  store i32 0, ptr %9, align 4, !tbaa !4
  call void @llvm.lifetime.start.p0(i64 264, ptr %10) #11
  %18 = getelementptr inbounds nuw %struct.option, ptr %10, i32 0, i32 0
  store i32 8, ptr %18, align 8, !tbaa !16
  %19 = getelementptr inbounds nuw %struct.option, ptr %10, i32 0, i32 1
  store i32 102, ptr %19, align 4, !tbaa !19
  %20 = getelementptr inbounds nuw %struct.option, ptr %10, i32 0, i32 2
  store ptr @.str.9, ptr %20, align 8, !tbaa !20
  %21 = getelementptr inbounds nuw %struct.option, ptr %10, i32 0, i32 3
  store ptr %9, ptr %21, align 8, !tbaa !21
  %22 = getelementptr inbounds nuw %struct.option, ptr %10, i32 0, i32 4
  store ptr null, ptr %22, align 8, !tbaa !22
  %23 = getelementptr inbounds nuw %struct.option, ptr %10, i32 0, i32 5
  store ptr @.str.151, ptr %23, align 8, !tbaa !23
  %24 = getelementptr inbounds nuw %struct.option, ptr %10, i32 0, i32 6
  store i32 514, ptr %24, align 8, !tbaa !24
  %25 = getelementptr i8, ptr %10, i64 44
  call void @llvm.memset.p0.i64(ptr align 4 %25, i8 0, i64 4, i1 false)
  %26 = getelementptr inbounds nuw %struct.option, ptr %10, i32 0, i32 7
  store ptr null, ptr %26, align 8, !tbaa !25
  %27 = getelementptr inbounds nuw %struct.option, ptr %10, i32 0, i32 8
  store i64 0, ptr %27, align 8, !tbaa !26
  %28 = getelementptr inbounds nuw %struct.option, ptr %10, i32 0, i32 9
  store ptr null, ptr %28, align 8, !tbaa !27
  %29 = getelementptr inbounds nuw %struct.option, ptr %10, i32 0, i32 10
  store i64 0, ptr %29, align 8, !tbaa !28
  %30 = getelementptr inbounds nuw %struct.option, ptr %10, i32 0, i32 11
  store ptr null, ptr %30, align 8, !tbaa !29
  %31 = getelementptr inbounds %struct.option, ptr %10, i64 1
  %32 = getelementptr inbounds nuw %struct.option, ptr %31, i32 0, i32 0
  store i32 9, ptr %32, align 8, !tbaa !16
  %33 = getelementptr inbounds nuw %struct.option, ptr %31, i32 0, i32 1
  store i32 0, ptr %33, align 4, !tbaa !19
  %34 = getelementptr inbounds nuw %struct.option, ptr %31, i32 0, i32 2
  store ptr @.str.30, ptr %34, align 8, !tbaa !20
  %35 = getelementptr inbounds nuw %struct.option, ptr %31, i32 0, i32 3
  store ptr @use_relative_paths, ptr %35, align 8, !tbaa !21
  %36 = getelementptr inbounds nuw %struct.option, ptr %31, i32 0, i32 4
  store ptr null, ptr %36, align 8, !tbaa !22
  %37 = getelementptr inbounds nuw %struct.option, ptr %31, i32 0, i32 5
  store ptr @.str.31, ptr %37, align 8, !tbaa !23
  %38 = getelementptr inbounds nuw %struct.option, ptr %31, i32 0, i32 6
  store i32 2, ptr %38, align 8, !tbaa !24
  %39 = getelementptr i8, ptr %31, i64 44
  call void @llvm.memset.p0.i64(ptr align 4 %39, i8 0, i64 4, i1 false)
  %40 = getelementptr inbounds nuw %struct.option, ptr %31, i32 0, i32 7
  store ptr null, ptr %40, align 8, !tbaa !25
  %41 = getelementptr inbounds nuw %struct.option, ptr %31, i32 0, i32 8
  store i64 1, ptr %41, align 8, !tbaa !26
  %42 = getelementptr inbounds nuw %struct.option, ptr %31, i32 0, i32 9
  store ptr null, ptr %42, align 8, !tbaa !27
  %43 = getelementptr inbounds nuw %struct.option, ptr %31, i32 0, i32 10
  store i64 0, ptr %43, align 8, !tbaa !28
  %44 = getelementptr inbounds nuw %struct.option, ptr %31, i32 0, i32 11
  store ptr null, ptr %44, align 8, !tbaa !29
  %45 = getelementptr inbounds %struct.option, ptr %10, i64 2
  call void @llvm.memset.p0.i64(ptr align 8 %45, i8 0, i64 88, i1 false)
  %46 = getelementptr inbounds nuw %struct.option, ptr %45, i32 0, i32 0
  store i32 0, ptr %46, align 8, !tbaa !16
  call void @llvm.lifetime.start.p0(i64 8, ptr %11) #11
  call void @llvm.lifetime.start.p0(i64 8, ptr %12) #11
  call void @llvm.lifetime.start.p0(i64 24, ptr %13) #11
  call void @llvm.memcpy.p0.p0.i64(ptr align 8 %13, ptr align 8 @__const.move_worktree.dst, i64 24, i1 false)
  call void @llvm.lifetime.start.p0(i64 24, ptr %14) #11
  call void @llvm.memcpy.p0.p0.i64(ptr align 8 %14, ptr align 8 @__const.move_worktree.errmsg, i64 24, i1 false)
  call void @llvm.lifetime.start.p0(i64 8, ptr %15) #11
  store ptr null, ptr %15, align 8, !tbaa !11
  call void @llvm.lifetime.start.p0(i64 8, ptr %16) #11
  %47 = load i32, ptr %5, align 4, !tbaa !4
  %48 = load ptr, ptr %6, align 8, !tbaa !8
  %49 = load ptr, ptr %7, align 8, !tbaa !11
  %50 = getelementptr inbounds [3 x %struct.option], ptr %10, i64 0, i64 0
  %51 = call i32 @parse_options(i32 noundef %47, ptr noundef %48, ptr noundef %49, ptr noundef %50, ptr noundef @git_worktree_move_usage, i32 noundef 0)
  store i32 %51, ptr %5, align 4, !tbaa !4
  %52 = load i32, ptr %5, align 4, !tbaa !4
  %53 = icmp ne i32 %52, 2
  br i1 %53, label %54, label %56

54:                                               ; preds = %4
  %55 = getelementptr inbounds [3 x %struct.option], ptr %10, i64 0, i64 0
  call void @usage_with_options(ptr noundef @git_worktree_move_usage, ptr noundef %55) #12
  unreachable

56:                                               ; preds = %4
  %57 = load ptr, ptr %7, align 8, !tbaa !11
  %58 = load ptr, ptr %6, align 8, !tbaa !8
  %59 = getelementptr inbounds ptr, ptr %58, i64 1
  %60 = load ptr, ptr %59, align 8, !tbaa !11
  %61 = call ptr @prefix_filename(ptr noundef %57, ptr noundef %60)
  store ptr %61, ptr %16, align 8, !tbaa !11
  %62 = load ptr, ptr %16, align 8, !tbaa !11
  call void @strbuf_addstr(ptr noundef %13, ptr noundef %62)
  %63 = load ptr, ptr %16, align 8, !tbaa !11
  call void @free(ptr noundef %63) #11
  %64 = call ptr @get_worktrees()
  store ptr %64, ptr %11, align 8, !tbaa !61
  %65 = load ptr, ptr %11, align 8, !tbaa !61
  %66 = load ptr, ptr %7, align 8, !tbaa !11
  %67 = load ptr, ptr %6, align 8, !tbaa !8
  %68 = getelementptr inbounds ptr, ptr %67, i64 0
  %69 = load ptr, ptr %68, align 8, !tbaa !11
  %70 = call ptr @find_worktree(ptr noundef %65, ptr noundef %66, ptr noundef %69)
  store ptr %70, ptr %12, align 8, !tbaa !63
  %71 = load ptr, ptr %12, align 8, !tbaa !63
  %72 = icmp ne ptr %71, null
  br i1 %72, label %78, label %73

73:                                               ; preds = %56
  %74 = call ptr @_(ptr noundef @.str.143)
  %75 = load ptr, ptr %6, align 8, !tbaa !8
  %76 = getelementptr inbounds ptr, ptr %75, i64 0
  %77 = load ptr, ptr %76, align 8, !tbaa !11
  call void (ptr, ...) @die(ptr noundef %74, ptr noundef %77) #12
  unreachable

78:                                               ; preds = %56
  %79 = load ptr, ptr %12, align 8, !tbaa !63
  %80 = call i32 @is_main_worktree(ptr noundef %79)
  %81 = icmp ne i32 %80, 0
  br i1 %81, label %82, label %87

82:                                               ; preds = %78
  %83 = call ptr @_(ptr noundef @.str.152)
  %84 = load ptr, ptr %6, align 8, !tbaa !8
  %85 = getelementptr inbounds ptr, ptr %84, i64 0
  %86 = load ptr, ptr %85, align 8, !tbaa !11
  call void (ptr, ...) @die(ptr noundef %83, ptr noundef %86) #12
  unreachable

87:                                               ; preds = %78
  %88 = getelementptr inbounds nuw %struct.strbuf, ptr %13, i32 0, i32 2
  %89 = load ptr, ptr %88, align 8, !tbaa !55
  %90 = call i32 @is_directory(ptr noundef %89)
  %91 = icmp ne i32 %90, 0
  br i1 %91, label %92, label %106

92:                                               ; preds = %87
  call void @llvm.lifetime.start.p0(i64 8, ptr %17) #11
  %93 = load ptr, ptr %12, align 8, !tbaa !63
  %94 = getelementptr inbounds nuw %struct.worktree, ptr %93, i32 0, i32 1
  %95 = load ptr, ptr %94, align 8, !tbaa !71
  %96 = call ptr @git_find_last_dir_sep(ptr noundef %95)
  store ptr %96, ptr %17, align 8, !tbaa !11
  %97 = load ptr, ptr %17, align 8, !tbaa !11
  %98 = icmp ne ptr %97, null
  br i1 %98, label %104, label %99

99:                                               ; preds = %92
  %100 = call ptr @_(ptr noundef @.str.153)
  %101 = load ptr, ptr %12, align 8, !tbaa !63
  %102 = getelementptr inbounds nuw %struct.worktree, ptr %101, i32 0, i32 1
  %103 = load ptr, ptr %102, align 8, !tbaa !71
  call void (ptr, ...) @die(ptr noundef %100, ptr noundef %103) #12
  unreachable

104:                                              ; preds = %92
  call void @strbuf_trim_trailing_dir_sep(ptr noundef %13)
  %105 = load ptr, ptr %17, align 8, !tbaa !11
  call void @strbuf_addstr(ptr noundef %13, ptr noundef %105)
  call void @llvm.lifetime.end.p0(i64 8, ptr %17) #11
  br label %106

106:                                              ; preds = %104, %87
  %107 = getelementptr inbounds nuw %struct.strbuf, ptr %13, i32 0, i32 2
  %108 = load ptr, ptr %107, align 8, !tbaa !55
  %109 = load i32, ptr %9, align 4, !tbaa !4
  %110 = load ptr, ptr %11, align 8, !tbaa !61
  call void @check_candidate_path(ptr noundef %108, i32 noundef %109, ptr noundef %110, ptr noundef @.str.5)
  %111 = load ptr, ptr %12, align 8, !tbaa !63
  call void @validate_no_submodules(ptr noundef %111)
  %112 = load i32, ptr %9, align 4, !tbaa !4
  %113 = icmp slt i32 %112, 2
  br i1 %113, label %114, label %117

114:                                              ; preds = %106
  %115 = load ptr, ptr %12, align 8, !tbaa !63
  %116 = call ptr @worktree_lock_reason(ptr noundef %115)
  store ptr %116, ptr %15, align 8, !tbaa !11
  br label %117

117:                                              ; preds = %114, %106
  %118 = load ptr, ptr %15, align 8, !tbaa !11
  %119 = icmp ne ptr %118, null
  br i1 %119, label %120, label %129

120:                                              ; preds = %117
  %121 = load ptr, ptr %15, align 8, !tbaa !11
  %122 = load i8, ptr %121, align 1, !tbaa !67
  %123 = icmp ne i8 %122, 0
  br i1 %123, label %124, label %127

124:                                              ; preds = %120
  %125 = call ptr @_(ptr noundef @.str.154)
  %126 = load ptr, ptr %15, align 8, !tbaa !11
  call void (ptr, ...) @die(ptr noundef %125, ptr noundef %126) #12
  unreachable

127:                                              ; preds = %120
  %128 = call ptr @_(ptr noundef @.str.155)
  call void (ptr, ...) @die(ptr noundef %128) #12
  unreachable

129:                                              ; preds = %117
  %130 = load ptr, ptr %12, align 8, !tbaa !63
  %131 = call i32 @validate_worktree(ptr noundef %130, ptr noundef %14, i32 noundef 0)
  %132 = icmp ne i32 %131, 0
  br i1 %132, label %133, label %137

133:                                              ; preds = %129
  %134 = call ptr @_(ptr noundef @.str.156)
  %135 = getelementptr inbounds nuw %struct.strbuf, ptr %14, i32 0, i32 2
  %136 = load ptr, ptr %135, align 8, !tbaa !55
  call void (ptr, ...) @die(ptr noundef %134, ptr noundef %136) #12
  unreachable

137:                                              ; preds = %129
  call void @strbuf_release(ptr noundef %14)
  %138 = load ptr, ptr %12, align 8, !tbaa !63
  %139 = getelementptr inbounds nuw %struct.worktree, ptr %138, i32 0, i32 1
  %140 = load ptr, ptr %139, align 8, !tbaa !71
  %141 = getelementptr inbounds nuw %struct.strbuf, ptr %13, i32 0, i32 2
  %142 = load ptr, ptr %141, align 8, !tbaa !55
  %143 = call i32 @rename(ptr noundef %140, ptr noundef %142) #11
  %144 = icmp eq i32 %143, -1
  br i1 %144, label %145, label %152

145:                                              ; preds = %137
  %146 = call ptr @_(ptr noundef @.str.157)
  %147 = load ptr, ptr %12, align 8, !tbaa !63
  %148 = getelementptr inbounds nuw %struct.worktree, ptr %147, i32 0, i32 1
  %149 = load ptr, ptr %148, align 8, !tbaa !71
  %150 = getelementptr inbounds nuw %struct.strbuf, ptr %13, i32 0, i32 2
  %151 = load ptr, ptr %150, align 8, !tbaa !55
  call void (ptr, ...) @die_errno(ptr noundef %146, ptr noundef %149, ptr noundef %151) #12
  unreachable

152:                                              ; preds = %137
  %153 = load ptr, ptr %12, align 8, !tbaa !63
  %154 = getelementptr inbounds nuw %struct.strbuf, ptr %13, i32 0, i32 2
  %155 = load ptr, ptr %154, align 8, !tbaa !55
  %156 = load i32, ptr @use_relative_paths, align 4, !tbaa !4
  call void @update_worktree_location(ptr noundef %153, ptr noundef %155, i32 noundef %156)
  call void @strbuf_release(ptr noundef %13)
  %157 = load ptr, ptr %11, align 8, !tbaa !61
  call void @free_worktrees(ptr noundef %157)
  call void @llvm.lifetime.end.p0(i64 8, ptr %16) #11
  call void @llvm.lifetime.end.p0(i64 8, ptr %15) #11
  call void @llvm.lifetime.end.p0(i64 24, ptr %14) #11
  call void @llvm.lifetime.end.p0(i64 24, ptr %13) #11
  call void @llvm.lifetime.end.p0(i64 8, ptr %12) #11
  call void @llvm.lifetime.end.p0(i64 8, ptr %11) #11
  call void @llvm.lifetime.end.p0(i64 264, ptr %10) #11
  call void @llvm.lifetime.end.p0(i64 4, ptr %9) #11
  ret i32 0
}