; Function Attrs: nounwind uwtable
define internal noundef i32 @move_worktree(i32 noundef %0, ptr noundef %1, ptr noundef %2, ptr readnone captures(none) %3) #0 {
  %5 = alloca i32, align 4
  %6 = alloca [3 x %struct.option], align 16
  %7 = alloca %struct.strbuf, align 8
  %8 = alloca %struct.strbuf, align 8
  call void @llvm.lifetime.start.p0(i64 4, ptr nonnull %5) #18
  store i32 0, ptr %5, align 4, !tbaa !38
  call void @llvm.lifetime.start.p0(i64 264, ptr nonnull %6) #18
  store i32 8, ptr %6, align 16, !tbaa !8
  %9 = getelementptr inbounds nuw i8, ptr %6, i64 4
  store i32 102, ptr %9, align 4, !tbaa !13
  %10 = getelementptr inbounds nuw i8, ptr %6, i64 8
  store ptr @.str.9, ptr %10, align 8, !tbaa !14
  %11 = getelementptr inbounds nuw i8, ptr %6, i64 16
  store ptr %5, ptr %11, align 16, !tbaa !15
  %12 = getelementptr inbounds nuw i8, ptr %6, i64 24
  store ptr null, ptr %12, align 8, !tbaa !39
  %13 = getelementptr inbounds nuw i8, ptr %6, i64 32
  store ptr @.str.151, ptr %13, align 16, !tbaa !40
  %14 = getelementptr inbounds nuw i8, ptr %6, i64 40
  store i32 514, ptr %14, align 8, !tbaa !41
  %15 = getelementptr inbounds nuw i8, ptr %6, i64 44
  %16 = getelementptr inbounds nuw i8, ptr %6, i64 88
  call void @llvm.memset.p0.i64(ptr noundef nonnull align 4 dereferenceable(44) %15, i8 0, i64 44, i1 false)
  store i32 9, ptr %16, align 8, !tbaa !8
  %17 = getelementptr inbounds nuw i8, ptr %6, i64 92
  store i32 0, ptr %17, align 4, !tbaa !13
  %18 = getelementptr inbounds nuw i8, ptr %6, i64 96
  store ptr @.str.30, ptr %18, align 16, !tbaa !14
  %19 = getelementptr inbounds nuw i8, ptr %6, i64 104
  store ptr @use_relative_paths, ptr %19, align 8, !tbaa !15
  %20 = getelementptr inbounds nuw i8, ptr %6, i64 112
  store ptr null, ptr %20, align 16, !tbaa !39
  %21 = getelementptr inbounds nuw i8, ptr %6, i64 120
  store ptr @.str.31, ptr %21, align 8, !tbaa !40
  %22 = getelementptr inbounds nuw i8, ptr %6, i64 128
  store i32 2, ptr %22, align 16, !tbaa !41
  %23 = getelementptr inbounds nuw i8, ptr %6, i64 132
  store i32 0, ptr %23, align 4
  %24 = getelementptr inbounds nuw i8, ptr %6, i64 136
  store ptr null, ptr %24, align 8, !tbaa !42
  %25 = getelementptr inbounds nuw i8, ptr %6, i64 144
  store i64 1, ptr %25, align 16, !tbaa !43
  %26 = getelementptr inbounds nuw i8, ptr %6, i64 152
  call void @llvm.memset.p0.i64(ptr noundef nonnull align 8 dereferenceable(112) %26, i8 0, i64 112, i1 false)
  call void @llvm.lifetime.start.p0(i64 24, ptr nonnull %7) #18
  call void @llvm.memcpy.p0.p0.i64(ptr noundef nonnull align 8 dereferenceable(24) %7, ptr noundef nonnull align 8 dereferenceable(24) @__const.delete_git_work_tree.sb, i64 24, i1 false)
  call void @llvm.lifetime.start.p0(i64 24, ptr nonnull %8) #18
  call void @llvm.memcpy.p0.p0.i64(ptr noundef nonnull align 8 dereferenceable(24) %8, ptr noundef nonnull align 8 dereferenceable(24) @__const.delete_git_work_tree.sb, i64 24, i1 false)
  %27 = call i32 @parse_options(i32 noundef %0, ptr noundef %1, ptr noundef %2, ptr noundef nonnull %6, ptr noundef nonnull @git_worktree_move_usage, i32 noundef 0) #18
  %.not = icmp eq i32 %27, 2
  br i1 %.not, label %29, label %28

28:                                               ; preds = %4
  call void @usage_with_options(ptr noundef nonnull @git_worktree_move_usage, ptr noundef nonnull %6) #19
  unreachable

29:                                               ; preds = %4
  %30 = getelementptr inbounds nuw i8, ptr %1, i64 8
  %31 = load ptr, ptr %30, align 8, !tbaa !37
  %32 = call ptr @prefix_filename(ptr noundef %2, ptr noundef %31) #18
  %33 = call i64 @strlen(ptr noundef nonnull dereferenceable(1) %32) #20
  call void @strbuf_add(ptr noundef nonnull %7, ptr noundef nonnull %32, i64 noundef %33) #18
  call void @free(ptr noundef %32) #18
  %34 = call ptr @get_worktrees() #18
  %35 = load ptr, ptr %1, align 8, !tbaa !37
  %36 = call ptr @find_worktree(ptr noundef %34, ptr noundef %2, ptr noundef %35) #18
  %.not31 = icmp eq ptr %36, null
  br i1 %.not31, label %37, label %40

37:                                               ; preds = %29
  %38 = call fastcc ptr @_(ptr noundef nonnull @.str.143)
  %39 = load ptr, ptr %1, align 8, !tbaa !37
  call void (ptr, ...) @die(ptr noundef %38, ptr noundef %39) #19
  unreachable

40:                                               ; preds = %29
  %41 = call i32 @is_main_worktree(ptr noundef nonnull %36) #18
  %.not32 = icmp eq i32 %41, 0
  br i1 %.not32, label %45, label %42

42:                                               ; preds = %40
  %43 = call fastcc ptr @_(ptr noundef nonnull @.str.152)
  %44 = load ptr, ptr %1, align 8, !tbaa !37
  call void (ptr, ...) @die(ptr noundef %43, ptr noundef %44) #19
  unreachable

45:                                               ; preds = %40
  %46 = getelementptr inbounds nuw i8, ptr %7, i64 16
  %47 = load ptr, ptr %46, align 8, !tbaa !50
  %48 = call i32 @is_directory(ptr noundef %47) #18
  %.not33 = icmp eq i32 %48, 0
  br i1 %.not33, label %58, label %49

49:                                               ; preds = %45
  %50 = getelementptr inbounds nuw i8, ptr %36, i64 8
  %51 = load ptr, ptr %50, align 8, !tbaa !83
  %52 = call ptr @strrchr(ptr noundef nonnull readonly dereferenceable(1) %51, i32 noundef 47) #20
  %.not34 = icmp eq ptr %52, null
  br i1 %.not34, label %53, label %56

53:                                               ; preds = %49
  %54 = call fastcc ptr @_(ptr noundef nonnull @.str.153)
  %55 = load ptr, ptr %50, align 8, !tbaa !83
  call void (ptr, ...) @die(ptr noundef %54, ptr noundef %55) #19
  unreachable

56:                                               ; preds = %49
  call void @strbuf_trim_trailing_dir_sep(ptr noundef nonnull %7) #18
  %57 = call i64 @strlen(ptr noundef nonnull dereferenceable(1) %52) #20
  call void @strbuf_add(ptr noundef nonnull %7, ptr noundef nonnull %52, i64 noundef %57) #18
  br label %58

58:                                               ; preds = %56, %45
  %59 = load ptr, ptr %46, align 8, !tbaa !50
  %60 = load i32, ptr %5, align 4, !tbaa !38
  call fastcc void @check_candidate_path(ptr noundef %59, i32 noundef %60, ptr noundef %34, ptr noundef nonnull @.str.5)
  call fastcc void @validate_no_submodules(ptr noundef %36)
  %61 = load i32, ptr %5, align 4, !tbaa !38
  %62 = icmp slt i32 %61, 2
  br i1 %62, label %63, label %.thread

63:                                               ; preds = %58
  %64 = call ptr @worktree_lock_reason(ptr noundef nonnull %36) #18
  %.not35 = icmp eq ptr %64, null
  br i1 %.not35, label %.thread, label %65

65:                                               ; preds = %63
  %66 = load i8, ptr %64, align 1, !tbaa !53
  %.not37 = icmp eq i8 %66, 0
  br i1 %.not37, label %69, label %67

67:                                               ; preds = %65
  %68 = call fastcc ptr @_(ptr noundef nonnull @.str.154)
  call void (ptr, ...) @die(ptr noundef %68, ptr noundef nonnull %64) #19
  unreachable

69:                                               ; preds = %65
  %70 = call fastcc ptr @_(ptr noundef nonnull @.str.155)
  call void (ptr, ...) @die(ptr noundef %70) #19
  unreachable

.thread:                                          ; preds = %58, %63
  %71 = call i32 @validate_worktree(ptr noundef nonnull %36, ptr noundef nonnull %8, i32 noundef 0) #18
  %.not36 = icmp eq i32 %71, 0
  br i1 %.not36, label %76, label %72

72:                                               ; preds = %.thread
  %73 = call fastcc ptr @_(ptr noundef nonnull @.str.156)
  %74 = getelementptr inbounds nuw i8, ptr %8, i64 16
  %75 = load ptr, ptr %74, align 8, !tbaa !50
  call void (ptr, ...) @die(ptr noundef %73, ptr noundef %75) #19
  unreachable

76:                                               ; preds = %.thread
  call void @strbuf_release(ptr noundef nonnull %8) #18
  %77 = getelementptr inbounds nuw i8, ptr %36, i64 8
  %78 = load ptr, ptr %77, align 8, !tbaa !83
  %79 = load ptr, ptr %46, align 8, !tbaa !50
  %80 = call i32 @rename(ptr noundef %78, ptr noundef %79) #18
  %81 = icmp eq i32 %80, -1
  br i1 %81, label %82, label %86

82:                                               ; preds = %76
  %83 = call fastcc ptr @_(ptr noundef nonnull @.str.157)
  %84 = load ptr, ptr %77, align 8, !tbaa !83
  %85 = load ptr, ptr %46, align 8, !tbaa !50
  call void (ptr, ...) @die_errno(ptr noundef %83, ptr noundef %84, ptr noundef %85) #19
  unreachable

86:                                               ; preds = %76
  %87 = load ptr, ptr %46, align 8, !tbaa !50
  %88 = load i32, ptr @use_relative_paths, align 4, !tbaa !38
  call void @update_worktree_location(ptr noundef nonnull %36, ptr noundef %87, i32 noundef %88) #18
  call void @strbuf_release(ptr noundef nonnull %7) #18
  call void @free_worktrees(ptr noundef %34) #18
  call void @llvm.lifetime.end.p0(i64 24, ptr nonnull %8) #18
  call void @llvm.lifetime.end.p0(i64 24, ptr nonnull %7) #18
  call void @llvm.lifetime.end.p0(i64 264, ptr nonnull %6) #18
  call void @llvm.lifetime.end.p0(i64 4, ptr nonnull %5) #18
  ret i32 0
}